target datalayout = "e-m:e-p270:32:32-p271:32:32-p272:64:64-i64:64-i128:128-f80:128-n8:16:32:64-S128"
target triple = "x86_64-pc-linux-gnu"

%struct.lxb_dom_node = type { %struct.lxb_dom_event_target, i64, i64, i64, ptr, ptr, ptr, ptr, ptr, ptr, ptr, i32, i64 }
%struct.lxb_dom_event_target = type { ptr }
%struct.lxb_html_tree = type { ptr, ptr, ptr, ptr, ptr, ptr, ptr, %struct.lxb_html_tree_pending_table_t, ptr, i8, i8, i8, i8, i8, i8, ptr, ptr, ptr, i32, i64 }
%struct.lxb_html_tree_pending_table_t = type { ptr, i8 }
%struct.lexbor_array_t = type { ptr, i64, i64 }

@lxb_html_tree_active_formatting_marker_node_static = internal global ptr @lxb_html_tree_active_formatting_marker_static, align 8

; Function Attrs: nounwind uwtable
define hidden ptr @lxb_html_tree_active_formatting_between_last_marker(ptr noundef %0, i64 noundef %1, ptr noundef %2) #0 {
  %4 = alloca ptr, align 8
  %5 = alloca ptr, align 8
  %6 = alloca i64, align 8
  %7 = alloca ptr, align 8
  %8 = alloca ptr, align 8
  %9 = alloca i64, align 8
  %10 = alloca i32, align 4
  store ptr %0, ptr %5, align 8, !tbaa !4
  store i64 %1, ptr %6, align 8, !tbaa !24
  store ptr %2, ptr %7, align 8, !tbaa !25
  call void @llvm.lifetime.start.p0(i64 8, ptr %8) #6
  %11 = load ptr, ptr %5, align 8, !tbaa !4
  %12 = getelementptr inbounds nuw %struct.lxb_html_tree, ptr %11, i32 0, i32 5
  %13 = load ptr, ptr %12, align 8, !tbaa !9
  %14 = getelementptr inbounds nuw %struct.lexbor_array_t, ptr %13, i32 0, i32 0
  %15 = load ptr, ptr %14, align 8, !tbaa !19
  store ptr %15, ptr %8, align 8, !tbaa !38
  call void @llvm.lifetime.start.p0(i64 8, ptr %9) #6
  %16 = load ptr, ptr %5, align 8, !tbaa !4
  %17 = getelementptr inbounds nuw %struct.lxb_html_tree, ptr %16, i32 0, i32 5
  %18 = load ptr, ptr %17, align 8, !tbaa !9
  %19 = getelementptr inbounds nuw %struct.lexbor_array_t, ptr %18, i32 0, i32 2
  %20 = load i64, ptr %19, align 8, !tbaa !22
  store i64 %20, ptr %9, align 8, !tbaa !24
  br label %21

21:                                               ; preds = %62, %3
  %22 = load i64, ptr %9, align 8, !tbaa !24
  %23 = icmp ne i64 %22, 0
  br i1 %23, label %24, label %63

24:                                               ; preds = %21
  %25 = load i64, ptr %9, align 8, !tbaa !24
  %26 = add i64 %25, -1
  store i64 %26, ptr %9, align 8, !tbaa !24
  %27 = load ptr, ptr %8, align 8, !tbaa !38
  %28 = load i64, ptr %9, align 8, !tbaa !24
  %29 = getelementptr inbounds nuw ptr, ptr %27, i64 %28
  %30 = load ptr, ptr %29, align 8, !tbaa !23
  %31 = load ptr, ptr @lxb_html_tree_active_formatting_marker_node_static, align 8, !tbaa !23
  %32 = icmp eq ptr %30, %31
  br i1 %32, label %33, label %34

33:                                               ; preds = %24
  store ptr null, ptr %4, align 8
  store i32 1, ptr %10, align 4
  br label %64

34:                                               ; preds = %24
  %35 = load ptr, ptr %8, align 8, !tbaa !38
  %36 = load i64, ptr %9, align 8, !tbaa !24
  %37 = getelementptr inbounds nuw ptr, ptr %35, i64 %36
  %38 = load ptr, ptr %37, align 8, !tbaa !23
  %39 = getelementptr inbounds nuw %struct.lxb_dom_node, ptr %38, i32 0, i32 1
  %40 = load i64, ptr %39, align 8, !tbaa !27
  %41 = load i64, ptr %6, align 8, !tbaa !24
  %42 = icmp eq i64 %40, %41
  br i1 %42, label %43, label %62

43:                                               ; preds = %34
  %44 = load ptr, ptr %8, align 8, !tbaa !38
  %45 = load i64, ptr %9, align 8, !tbaa !24
  %46 = getelementptr inbounds nuw ptr, ptr %44, i64 %45
  %47 = load ptr, ptr %46, align 8, !tbaa !23
  %48 = getelementptr inbounds nuw %struct.lxb_dom_node, ptr %47, i32 0, i32 3
  %49 = load i64, ptr %48, align 8, !tbaa !40
  %50 = icmp eq i64 %49, 2
  br i1 %50, label %51, label %62

51:                                               ; preds = %43
  %52 = load ptr, ptr %7, align 8, !tbaa !25
  %53 = icmp ne ptr %52, null
  br i1 %53, label %54, label %57

54:                                               ; preds = %51
  %55 = load i64, ptr %9, align 8, !tbaa !24
  %56 = load ptr, ptr %7, align 8, !tbaa !25
  store i64 %55, ptr %56, align 8, !tbaa !24
  br label %57

57:                                               ; preds = %54, %51
  %58 = load ptr, ptr %8, align 8, !tbaa !38
  %59 = load i64, ptr %9, align 8, !tbaa !24
  %60 = getelementptr inbounds nuw ptr, ptr %58, i64 %59
  %61 = load ptr, ptr %60, align 8, !tbaa !23
  store ptr %61, ptr %4, align 8
  store i32 1, ptr %10, align 4
  br label %64

62:                                               ; preds = %43, %34
  br label %21

63:                                               ; preds = %21
  store ptr null, ptr %4, align 8
  store i32 1, ptr %10, align 4
  br label %64

64:                                               ; preds = %63, %57, %33
  call void @llvm.lifetime.end.p0(i64 8, ptr %9) #6
  call void @llvm.lifetime.end.p0(i64 8, ptr %8) #6
  %65 = load ptr, ptr %4, align 8
  ret ptr %65
}