; Function Attrs: nofree norecurse nosync nounwind memory(read, argmem: readwrite, inaccessiblemem: none) uwtable
define hidden ptr @lxb_html_tree_active_formatting_between_last_marker(ptr noundef readonly captures(none) %0, i64 noundef %1, ptr noundef writeonly captures(address_is_null) %2) local_unnamed_addr #4 {
  %4 = getelementptr inbounds nuw i8, ptr %0, i64 40
  %5 = load ptr, ptr %4, align 8, !tbaa !4
  %6 = load ptr, ptr %5, align 8, !tbaa !17
  %7 = getelementptr inbounds nuw i8, ptr %5, i64 16
  %8 = load i64, ptr %7, align 8, !tbaa !19
  %.not21 = icmp eq i64 %8, 0
  br i1 %.not21, label %.loopexit, label %.lr.ph

.lr.ph:                                           ; preds = %3, %23
  %.022 = phi i64 [ %9, %23 ], [ %8, %3 ]
  %9 = add i64 %.022, -1
  %10 = getelementptr inbounds nuw ptr, ptr %6, i64 %9
  %11 = load ptr, ptr %10, align 8, !tbaa !31
  %12 = icmp eq ptr %11, @lxb_html_tree_active_formatting_marker_static
  br i1 %12, label %.loopexit, label %13

13:                                               ; preds = %.lr.ph
  %14 = getelementptr inbounds nuw i8, ptr %11, i64 8
  %15 = load i64, ptr %14, align 8, !tbaa !22
  %16 = icmp eq i64 %15, %1
  br i1 %16, label %17, label %23

17:                                               ; preds = %13
  %18 = getelementptr inbounds nuw i8, ptr %11, i64 24
  %19 = load i64, ptr %18, align 8, !tbaa !32
  %20 = icmp eq i64 %19, 2
  br i1 %20, label %21, label %23

21:                                               ; preds = %17
  %.not19 = icmp eq ptr %2, null
  br i1 %.not19, label %.loopexit, label %22

22:                                               ; preds = %21
  store i64 %9, ptr %2, align 8, !tbaa !21
  br label %.loopexit

23:                                               ; preds = %17, %13
  %.not = icmp eq i64 %9, 0
  br i1 %.not, label %.loopexit, label %.lr.ph

.loopexit:                                        ; preds = %.lr.ph, %23, %3, %21, %22
  %.016 = phi ptr [ %11, %22 ], [ %11, %21 ], [ null, %3 ], [ null, %23 ], [ null, %.lr.ph ]
  ret ptr %.016
}